; Function Attrs: nofree norecurse nosync nounwind memory(read, inaccessiblemem: none) uwtable
define range(i32 0, 2) i32 @Acb_NtkIsPiBuffers(ptr noundef readonly captures(none) %0, i32 noundef %1) local_unnamed_addr #3 {
  %3 = getelementptr i8, ptr %0, i64 120
  %.val = load ptr, ptr %3, align 8, !tbaa !23
  %4 = sext i32 %1 to i64
  %5 = getelementptr inbounds i8, ptr %.val, i64 %4
  %6 = load i8, ptr %5, align 1, !tbaa !24
  %.not13 = icmp eq i8 %6, 3
  br i1 %.not13, label %._crit_edge, label %.lr.ph

.lr.ph:                                           ; preds = %2
  %7 = getelementptr i8, ptr %0, i64 136
  %.val8 = load ptr, ptr %7, align 8, !tbaa !21
  %8 = getelementptr i8, ptr %0, i64 152
  %.val9 = load ptr, ptr %8, align 8, !tbaa !21
  br label %9

9:                                                ; preds = %.lr.ph, %tailrecurse
  %10 = phi i64 [ %4, %.lr.ph ], [ %18, %tailrecurse ]
  %11 = getelementptr inbounds i32, ptr %.val8, i64 %10
  %12 = load i32, ptr %11, align 4, !tbaa !22
  %13 = sext i32 %12 to i64
  %14 = getelementptr inbounds i32, ptr %.val9, i64 %13
  %15 = load i32, ptr %14, align 4, !tbaa !22
  %.not7 = icmp eq i32 %15, 1
  br i1 %.not7, label %tailrecurse, label %._crit_edge

tailrecurse:                                      ; preds = %9
  %16 = getelementptr inbounds nuw i8, ptr %14, i64 4
  %17 = load i32, ptr %16, align 4, !tbaa !22
  %18 = sext i32 %17 to i64
  %19 = getelementptr inbounds i8, ptr %.val, i64 %18
  %20 = load i8, ptr %19, align 1, !tbaa !24
  %.not = icmp eq i8 %20, 3
  br i1 %.not, label %._crit_edge, label %9

._crit_edge:                                      ; preds = %tailrecurse, %9, %2
  %.0 = phi i32 [ 1, %2 ], [ 0, %9 ], [ 1, %tailrecurse ]
  ret i32 %.0
}